target datalayout = "e-m:e-p270:32:32-p271:32:32-p272:64:64-i64:64-i128:128-f80:128-n8:16:32:64-S128"
target triple = "x86_64-pc-linux-gnu"

%class.HdrSeq = type { %class.NumberSeq, ptr }
%class.NumberSeq = type { %class.AbsSeq, double, double }
%class.AbsSeq = type { ptr, i32, double, double, double, double, double }

; Function Attrs: mustprogress nounwind uwtable
define hidden void @_ZN6HdrSeq3addEd(ptr noundef nonnull align 8 dereferenceable(80) %0, double noundef %1) unnamed_addr #1 align 2 {
  %3 = alloca ptr, align 8
  %4 = alloca double, align 8
  %5 = alloca double, align 8
  %6 = alloca i32, align 4
  %7 = alloca i32, align 4
  %8 = alloca i32, align 4
  %9 = alloca ptr, align 8
  %10 = alloca i32, align 4
  store ptr %0, ptr %3, align 8
  store double %1, ptr %4, align 8
  %11 = load ptr, ptr %3, align 8
  %12 = load double, ptr %4, align 8
  %13 = fcmp olt double %12, 0.000000e+00
  br i1 %13, label %14, label %15

14:                                               ; preds = %2
  store double 0.000000e+00, ptr %4, align 8
  br label %15

15:                                               ; preds = %14, %2
  %16 = load double, ptr %4, align 8
  call void @_ZN9NumberSeq3addEd(ptr noundef nonnull align 8 dereferenceable(72) %11, double noundef %16)
  %17 = load double, ptr %4, align 8
  store double %17, ptr %5, align 8
  %18 = load double, ptr %5, align 8
  %19 = fcmp ogt double %18, 0.000000e+00
  br i1 %19, label %20, label %39

20:                                               ; preds = %15
  store i32 0, ptr %6, align 4
  br label %21

21:                                               ; preds = %24, %20
  %22 = load double, ptr %5, align 8
  %23 = fcmp oge double %22, 1.000000e+00
  br i1 %23, label %24, label %29

24:                                               ; preds = %21
  %25 = load i32, ptr %6, align 4
  %26 = add nsw i32 %25, 1
  store i32 %26, ptr %6, align 4
  %27 = load double, ptr %5, align 8
  %28 = fdiv double %27, 1.000000e+01
  store double %28, ptr %5, align 8
  br label %21, !llvm.loop !9

29:                                               ; preds = %21
  br label %30

30:                                               ; preds = %33, %29
  %31 = load double, ptr %5, align 8
  %32 = fcmp olt double %31, 1.000000e-01
  br i1 %32, label %33, label %38

33:                                               ; preds = %30
  %34 = load i32, ptr %6, align 4
  %35 = add nsw i32 %34, -1
  store i32 %35, ptr %6, align 4
  %36 = load double, ptr %5, align 8
  %37 = fmul double %36, 1.000000e+01
  store double %37, ptr %5, align 8
  br label %30, !llvm.loop !10

38:                                               ; preds = %30
  br label %40

39:                                               ; preds = %15
  store i32 -12, ptr %6, align 4
  br label %40

40:                                               ; preds = %39, %38
  %41 = load i32, ptr %6, align 4
  %42 = add nsw i32 12, %41
  store i32 %42, ptr %7, align 4
  %43 = load double, ptr %5, align 8
  %44 = fmul double %43, 5.120000e+02
  %45 = fptosi double %44 to i32
  store i32 %45, ptr %8, align 4
  %46 = load i32, ptr %7, align 4
  %47 = icmp slt i32 %46, 0
  br i1 %47, label %48, label %49

48:                                               ; preds = %40
  store i32 0, ptr %7, align 4
  br label %49

49:                                               ; preds = %48, %40
  %50 = load i32, ptr %7, align 4
  %51 = icmp sge i32 %50, 24
  br i1 %51, label %52, label %53

52:                                               ; preds = %49
  store i32 23, ptr %7, align 4
  br label %53

53:                                               ; preds = %52, %49
  %54 = load i32, ptr %8, align 4
  %55 = icmp slt i32 %54, 0
  br i1 %55, label %56, label %57

56:                                               ; preds = %53
  store i32 0, ptr %8, align 4
  br label %57

57:                                               ; preds = %56, %53
  %58 = load i32, ptr %8, align 4
  %59 = icmp sge i32 %58, 512
  br i1 %59, label %60, label %61

60:                                               ; preds = %57
  store i32 511, ptr %8, align 4
  br label %61

61:                                               ; preds = %60, %57
  %62 = getelementptr inbounds %class.HdrSeq, ptr %11, i32 0, i32 1
  %63 = load ptr, ptr %62, align 8
  %64 = load i32, ptr %7, align 4
  %65 = sext i32 %64 to i64
  %66 = getelementptr inbounds ptr, ptr %63, i64 %65
  %67 = load ptr, ptr %66, align 8
  store ptr %67, ptr %9, align 8
  %68 = load ptr, ptr %9, align 8
  %69 = icmp eq ptr %68, null
  br i1 %69, label %70, label %90

70:                                               ; preds = %61
  %71 = call noundef ptr @_Z12AllocateHeapm8MEMFLAGSN17AllocFailStrategy13AllocFailEnumE(i64 noundef 2048, i8 noundef zeroext 9, i32 noundef 0)
  store ptr %71, ptr %9, align 8
  store i32 0, ptr %10, align 4
  br label %72

72:                                               ; preds = %80, %70
  %73 = load i32, ptr %10, align 4
  %74 = icmp slt i32 %73, 512
  br i1 %74, label %75, label %83

75:                                               ; preds = %72
  %76 = load ptr, ptr %9, align 8
  %77 = load i32, ptr %10, align 4
  %78 = sext i32 %77 to i64
  %79 = getelementptr inbounds i32, ptr %76, i64 %78
  store i32 0, ptr %79, align 4
  br label %80

80:                                               ; preds = %75
  %81 = load i32, ptr %10, align 4
  %82 = add nsw i32 %81, 1
  store i32 %82, ptr %10, align 4
  br label %72, !llvm.loop !11

83:                                               ; preds = %72
  %84 = load ptr, ptr %9, align 8
  %85 = getelementptr inbounds %class.HdrSeq, ptr %11, i32 0, i32 1
  %86 = load ptr, ptr %85, align 8
  %87 = load i32, ptr %7, align 4
  %88 = sext i32 %87 to i64
  %89 = getelementptr inbounds ptr, ptr %86, i64 %88
  store ptr %84, ptr %89, align 8
  br label %90

90:                                               ; preds = %83, %61
  %91 = load ptr, ptr %9, align 8
  %92 = load i32, ptr %8, align 4
  %93 = sext i32 %92 to i64
  %94 = getelementptr inbounds i32, ptr %91, i64 %93
  %95 = load i32, ptr %94, align 4
  %96 = add nsw i32 %95, 1
  store i32 %96, ptr %94, align 4
  ret void
}