; Function Attrs: mustprogress nounwind uwtable
define hidden void @_ZN6HdrSeq3addEd(ptr noundef nonnull align 8 dereferenceable(80) %0, double noundef %1) unnamed_addr #0 align 2 {
  %3 = fcmp olt double %1, 0.000000e+00
  %.034 = select i1 %3, double 0.000000e+00, double %1
  tail call void @_ZN9NumberSeq3addEd(ptr noundef nonnull align 8 dereferenceable(72) %0, double noundef %.034) #9
  %4 = fcmp ogt double %.034, 0.000000e+00
  br i1 %4, label %.preheader37, label %.loopexit

.preheader37:                                     ; preds = %2
  %5 = fcmp ult double %.034, 1.000000e+00
  br i1 %5, label %.preheader, label %.lr.ph

.preheader:                                       ; preds = %.lr.ph, %.preheader37
  %.031.lcssa = phi double [ %.034, %.preheader37 ], [ %8, %.lr.ph ]
  %.030.lcssa = phi i32 [ 0, %.preheader37 ], [ %7, %.lr.ph ]
  %6 = fcmp olt double %.031.lcssa, 1.000000e-01
  br i1 %6, label %.lr.ph43, label %.loopexit

.lr.ph:                                           ; preds = %.preheader37, %.lr.ph
  %.03039 = phi i32 [ %7, %.lr.ph ], [ 0, %.preheader37 ]
  %.03138 = phi double [ %8, %.lr.ph ], [ %.034, %.preheader37 ]
  %7 = add nuw nsw i32 %.03039, 1
  %8 = fdiv double %.03138, 1.000000e+01
  %9 = fcmp ult double %8, 1.000000e+00
  br i1 %9, label %.preheader, label %.lr.ph, !llvm.loop !9

.lr.ph43:                                         ; preds = %.preheader, %.lr.ph43
  %.142 = phi i32 [ %10, %.lr.ph43 ], [ %.030.lcssa, %.preheader ]
  %.13241 = phi double [ %11, %.lr.ph43 ], [ %.031.lcssa, %.preheader ]
  %10 = add nsw i32 %.142, -1
  %11 = fmul double %.13241, 1.000000e+01
  %12 = fcmp olt double %11, 1.000000e-01
  br i1 %12, label %.lr.ph43, label %.loopexit, !llvm.loop !10

.loopexit:                                        ; preds = %.lr.ph43, %.preheader, %2
  %.233 = phi double [ %.034, %2 ], [ %.031.lcssa, %.preheader ], [ %11, %.lr.ph43 ]
  %.2 = phi i32 [ -12, %2 ], [ %.030.lcssa, %.preheader ], [ %10, %.lr.ph43 ]
  %13 = tail call i32 @llvm.smax.i32(i32 %.2, i32 -12)
  %14 = tail call i32 @llvm.smin.i32(i32 %13, i32 11)
  %spec.store.select2 = add nsw i32 %14, 12
  %15 = getelementptr inbounds i8, ptr %0, i64 72
  %16 = load ptr, ptr %15, align 8
  %17 = zext nneg i32 %spec.store.select2 to i64
  %18 = getelementptr inbounds ptr, ptr %16, i64 %17
  %19 = load ptr, ptr %18, align 8
  %20 = icmp eq ptr %19, null
  br i1 %20, label %21, label %25

21:                                               ; preds = %.loopexit
  %22 = tail call noundef ptr @_Z12AllocateHeapm8MEMFLAGSN17AllocFailStrategy13AllocFailEnumE(i64 noundef 2048, i8 noundef zeroext 9, i32 noundef 0) #9
  tail call void @llvm.memset.p0.i64(ptr noundef nonnull align 4 dereferenceable(2048) %22, i8 0, i64 2048, i1 false)
  %23 = load ptr, ptr %15, align 8
  %24 = getelementptr inbounds ptr, ptr %23, i64 %17
  store ptr %22, ptr %24, align 8
  br label %25

25:                                               ; preds = %21, %.loopexit
  %.029 = phi ptr [ %22, %21 ], [ %19, %.loopexit ]
  %26 = fmul double %.233, 5.120000e+02
  %27 = fptosi double %26 to i32
  %spec.store.select1 = tail call i32 @llvm.smax.i32(i32 %27, i32 0)
  %spec.store.select3 = tail call i32 @llvm.umin.i32(i32 %spec.store.select1, i32 511)
  %28 = zext nneg i32 %spec.store.select3 to i64
  %29 = getelementptr inbounds i32, ptr %.029, i64 %28
  %30 = load i32, ptr %29, align 4
  %31 = add nsw i32 %30, 1
  store i32 %31, ptr %29, align 4
  ret void
}